Certificate:
    Data:
        Version: 1 (0x0)
        Serial Number: 1 (0x1)
        Signature Algorithm: md5WithRSAEncryption
        Issuer: C=NO, L=Lysaker, O=OpenESP, CN=OpenESP
        Validity
            Not Before: Feb  6 00:55:00 2013 GMT
            Not After : Feb  4 00:55:00 2023 GMT
        Subject: C=NO, O=OpenESP, CN=OpenESP
        Subject Public Key Info:
            Public Key Algorithm: rsaEncryption
            RSA Public Key: (2048 bit)
                Modulus (2048 bit):
                    00:ba:55:69:fd:99:d4:f9:12:3d:4f:0e:44:52:75:
                    f6:52:59:9c:9d:0b:3c:21:11:57:60:13:75:87:95:
                    7e:78:e8:70:53:4e:4d:c8:ca:eb:99:e4:1d:a4:37:
                    ae:62:31:8d:a4:ff:9b:fc:2a:e4:6c:20:35:97:50:
                    81:9f:5e:3b:b9:5c:df:ff:ca:07:b1:54:bd:e8:b6:
                    08:ae:af:bb:d8:45:b8:63:b4:08:0e:8d:e0:7e:75:
                    43:2a:3b:c6:79:b1:1d:12:2f:0f:c7:ef:61:14:ba:
                    c5:a7:b9:ab:a1:20:3e:7b:aa:a8:03:2f:3a:29:5d:
                    b8:de:74:74:fc:5a:e9:8d:49:9c:49:be:6d:37:dd:
                    01:73:c8:31:64:93:35:e0:3d:91:3a:52:c0:b7:03:
                    ec:19:d7:7d:92:23:51:eb:88:8d:2d:48:26:1e:00:
                    1d:e2:ad:95:f3:64:1c:e1:6d:63:ea:24:07:0c:d4:
                    7a:f1:39:01:68:b8:8b:74:e1:60:9f:0b:20:70:c0:
                    64:90:00:bd:fa:b3:3e:15:7b:11:0e:f8:ec:54:02:
                    a3:ce:ce:b2:ad:95:5b:c2:8c:c5:55:c5:87:9d:45:
                    fd:8b:e2:19:6f:3b:23:fd:64:d1:47:93:67:ec:b1:
                    9a:c8:49:cb:65:fa:bd:96:5a:30:91:75:f8:e6:ba:
                    ae:63
                Exponent: 65537 (0x10001)
    Signature Algorithm: md5WithRSAEncryption
        3c:81:91:15:8b:df:06:42:fc:10:fa:49:e8:46:e6:35:fd:04:
        8e:49:9e:d1:87:42:12:fc:71:2f:b3:68:b7:51:ae:2e:54:4e:
        64:a6:0e:18:66:49:72:47:84:6b:1a:a2:19:a0:55:46:b3:bb:
        9a:71:72:03:e5:90:61:fc:08:53:81:9e:fe:29:1f:4a:7a:7d:
        eb:57:d4:6e:c3:15:ca:11:ed:51:4a:40:41:7d:5b:1e:4d:87:
        11:ac:dd:1c:56:df:80:fc:a5:65:86:35:34:08:dc:48:f7:02:
        f3:04:56:94:cb:e0:dd:75:2d:78:ab:d4:a5:a0:e4:e7:58:7d:
        fa:15:56:1b:c6:cb:4a:c3:a5:8b:64:44:49:0c:d8:ed:30:0e:
        05:77:2e:d8:ad:33:59:73:4e:be:d4:f1:5a:b2:67:75:b5:76:
        49:46:f8:1f:d9:40:11:6c:c7:81:c3:83:31:5d:53:fc:0a:0d:
        c1:13:89:66:fa:9a:63:cf:43:54:b8:f9:3c:14:fe:03:d6:cc:
        03:f0:14:06:93:aa:31:6b:5e:94:90:0e:fb:46:82:9e:b8:55:
        d6:30:b9:e2:07:fd:7f:39:03:ef:b6:09:93:c6:ae:f3:bf:f3:
        57:6f:bd:f3:13:46:05:0f:6c:d8:f2:7a:f2:17:e9:f4:0f:e1:
        6f:02:af:e8
-----BEGIN CERTIFICATE-----
MIIC6DCCAdACAQEwDQYJKoZIhvcNAQEEBQAwQzELMAkGA1UEBhMCTk8xEDAOBgNV
BAcTB0x5c2FrZXIxEDAOBgNVBAoTB09wZW5FU1AxEDAOBgNVBAMTB09wZW5FU1Aw
HhcNMTMwMjA2MDA1NTAwWhcNMjMwMjA0MDA1NTAwWjAxMQswCQYDVQQGEwJOTzEQ
MA4GA1UEChMHT3BlbkVTUDEQMA4GA1UEAxMHT3BlbkVTUDCCASIwDQYJKoZIhvcN
AQEBBQADggEPADCCAQoCggEBALpVaf2Z1PkSPU8ORFJ19lJZnJ0LPCERV2ATdYeV
fnjocFNOTcjK65nkHaQ3rmIxjaT/m/wq5GwgNZdQgZ9eO7lc3//KB7FUvei2CK6v
u9hFuGO0CA6N4H51Qyo7xnmxHRIvD8fvYRS6xae5q6EgPnuqqAMvOilduN50dPxa
6Y1JnEm+bTfdAXPIMWSTNeA9kTpSwLcD7BnXfZIjUeuIjS1IJh4AHeKtlfNkHOFt
Y+okBwzUevE5AWi4i3ThYJ8LIHDAZJAAvfqzPhV7EQ747FQCo87Osq2VW8KMxVXF
h51F/YviGW87I/1k0UeTZ+yxmshJy2X6vZZaMJF1+Oa6rmMCAwEAATANBgkqhkiG
9w0BAQQFAAOCAQEAPIGRFYvfBkL8EPpJ6EbmNf0Ejkme0YdCEvxxL7Not1GuLlRO
ZKYOGGZJckeEaxqiGaBVRrO7mnFyA+WQYfwIU4Ge/ikfSnp961fUbsMVyhHtUUpA
QX1bHk2HEazdHFbfgPylZYY1NAjcSPcC8wRWlMvg3XUteKvUpaDk51h9+hVWG8bL
SsOli2RESQzY7TAOBXcu2K0zWXNOvtTxWrJndbV2SUb4H9lAEWzHgcODMV1T/AoN
wROJZvqaY89DVLj5PBT+A9bMA/AUBpOqMWtelJAO+0aCnrhV1jC54gf9fzkD77YJ
k8au87/zV2+98xNGBQ9s2PJ68hfp9A/hbwKv6A==
-----END CERTIFICATE-----
